Certificate:
    Data:
        Version: 1 (0x0)
        Serial Number:
            fc:de:ca:90:16:be:28:cd
    Signature Algorithm: sha256WithRSAEncryption
        Issuer: C = US, ST = MI, L = DET, O = devopsec, OU = IT, CN = devopsec.net, emailAddress = test@devopsec.net
        Validity
            Not Before: Mar 20 11:59:24 2017 GMT
            Not After : Mar 20 11:59:24 2018 GMT
        Subject: C = US, ST = MI, L = DET, O = devopsec, OU = IT, CN = devopsec.net, emailAddress = test@devopsec.net
        Subject Public Key Info:
            Public Key Algorithm: rsaEncryption
                Public-Key: (2048 bit)
                Modulus:
                    00:f1:b2:5a:5e:f5:c7:5d:b2:ce:e9:73:ec:63:10:
                    f3:53:ac:55:d9:a7:02:ad:81:2e:8e:80:91:a3:cf:
                    41:cb:82:58:ba:a2:92:68:9f:9e:68:bd:aa:ce:12:
                    bb:aa:bc:97:80:90:0e:b7:ca:aa:7d:23:2c:8f:78:
                    ee:8c:0a:57:88:47:4c:eb:c4:c6:51:ce:d1:81:23:
                    c1:88:05:2e:02:80:2e:42:9a:06:2d:4f:95:ec:17:
                    f2:2e:a2:5e:b1:f0:83:e1:e4:4e:b9:46:6d:af:64:
                    b0:c3:fa:3d:38:69:eb:5e:18:79:7f:05:a1:98:7d:
                    2c:5a:28:7e:cb:80:e9:b4:0f:a6:e3:47:f1:ea:20:
                    51:93:67:04:cf:24:87:4e:7a:9a:02:c7:cb:ff:3b:
                    75:a6:c1:e5:fa:ed:fe:3e:8c:c8:6c:33:e9:2b:62:
                    59:33:4b:38:64:69:28:e6:28:a8:c9:53:1e:25:e4:
                    9f:bf:c5:b0:42:05:b9:e4:02:fe:cc:a8:b4:47:89:
                    9f:a1:78:37:93:bd:bf:16:a9:ab:d7:e8:9f:13:a6:
                    32:7e:0b:35:8d:44:d7:c4:b4:d2:2a:70:41:36:4b:
                    02:f0:1e:d3:38:50:07:56:ca:58:b0:6b:73:32:96:
                    41:1f:26:e8:9b:73:f3:49:b2:d6:00:f4:2d:71:82:
                    49:df
                Exponent: 65537 (0x10001)
    Signature Algorithm: sha256WithRSAEncryption
         d3:8c:dd:ea:bc:f9:b8:2a:9f:d8:33:56:6d:7b:5d:a3:75:2a:
         bb:42:c5:6e:66:f5:19:d1:62:03:2c:88:2e:5b:39:64:21:94:
         30:9f:a0:5b:30:1e:30:80:3f:02:fb:b4:12:4b:fe:d2:45:4c:
         68:70:3d:68:6c:d6:53:cd:ed:6b:64:d6:cc:99:84:18:33:0d:
         5d:86:f4:0f:67:84:d1:f3:f6:ac:d9:a2:12:f1:08:c3:18:d3:
         1b:d1:a9:40:73:94:57:3b:f6:31:b2:c8:2c:33:2b:e3:12:cb:
         1b:fd:41:6a:f8:33:ba:04:5c:51:dd:57:54:30:d1:73:f7:77:
         ca:95:d6:bb:02:11:14:2c:55:b1:bb:75:6d:f1:d4:50:cb:20:
         97:10:d9:de:ff:bd:3b:54:97:e6:b0:ed:98:8a:05:40:fd:96:
         af:dd:fa:6e:18:fc:40:4d:89:f3:71:10:33:ad:80:27:c2:f0:
         e9:67:a5:e5:23:26:a4:a6:3f:85:60:8b:ad:6e:dc:c8:62:1e:
         2e:e8:50:11:44:ea:fc:b9:41:7c:59:4f:d9:22:b6:a7:5c:1e:
         8d:32:6e:d8:c7:8d:0f:4a:33:fa:5b:c0:b6:9c:86:ee:5f:0f:
         a2:c2:e7:34:62:aa:52:b5:67:5e:50:c0:43:a9:04:82:db:8d:
         52:46:34:7d
-----BEGIN CERTIFICATE-----
MIIDgDCCAmgCCQD83sqQFr4ozTANBgkqhkiG9w0BAQsFADCBgTELMAkGA1UEBhMC
VVMxCzAJBgNVBAgMAk1JMQwwCgYDVQQHDANERVQxETAPBgNVBAoMCGRldm9wc2Vj
MQswCQYDVQQLDAJJVDEVMBMGA1UEAwwMZGV2b3BzZWMubmV0MSAwHgYJKoZIhvcN
AQkBFhF0ZXN0QGRldm9wc2VjLm5ldDAeFw0xNzAzMjAxMTU5MjRaFw0xODAzMjAx
MTU5MjRaMIGBMQswCQYDVQQGEwJVUzELMAkGA1UECAwCTUkxDDAKBgNVBAcMA0RF
VDERMA8GA1UECgwIZGV2b3BzZWMxCzAJBgNVBAsMAklUMRUwEwYDVQQDDAxkZXZv
cHNlYy5uZXQxIDAeBgkqhkiG9w0BCQEWEXRlc3RAZGV2b3BzZWMubmV0MIIBIjAN
BgkqhkiG9w0BAQEFAAOCAQ8AMIIBCgKCAQEA8bJaXvXHXbLO6XPsYxDzU6xV2acC
rYEujoCRo89By4JYuqKSaJ+eaL2qzhK7qryXgJAOt8qqfSMsj3jujApXiEdM68TG
Uc7RgSPBiAUuAoAuQpoGLU+V7BfyLqJesfCD4eROuUZtr2Sww/o9OGnrXhh5fwWh
mH0sWih+y4DptA+m40fx6iBRk2cEzySHTnqaAsfL/zt1psHl+u3+PozIbDPpK2JZ
M0s4ZGko5iioyVMeJeSfv8WwQgW55AL+zKi0R4mfoXg3k72/Fqmr1+ifE6Yyfgs1
jUTXxLTSKnBBNksC8B7TOFAHVspYsGtzMpZBHybom3PzSbLWAPQtcYJJ3wIDAQAB
MA0GCSqGSIb3DQEBCwUAA4IBAQDTjN3qvPm4Kp/YM1Zte12jdSq7QsVuZvUZ0WID
LIguWzlkIZQwn6BbMB4wgD8C+7QSS/7SRUxocD1obNZTze1rZNbMmYQYMw1dhvQP
Z4TR8/as2aIS8QjDGNMb0alAc5RXO/YxssgsMyvjEssb/UFq+DO6BFxR3VdUMNFz
93fKlda7AhEULFWxu3Vt8dRQyyCXENne/707VJfmsO2YigVA/Zav3fpuGPxATYnz
cRAzrYAnwvDpZ6XlIyakpj+FYIutbtzIYh4u6FARROr8uUF8WU/ZIranXB6NMm7Y
x40PSjP6W8C2nIbuXw+iwuc0YqpStWdeUMBDqQSC241SRjR9
-----END CERTIFICATE-----
