Certificate:
    Data:
        Version: 1 (0x0)
        Serial Number:
            df:99:07:00:68:c7:79:a3
    Signature Algorithm: sha256WithRSAEncryption
        Issuer: C = AU, ST = Some-State, O = Internet Widgits Pty Ltd
        Validity
            Not Before: Mar 20 13:03:45 2017 GMT
            Not After : Mar 20 13:03:45 2018 GMT
        Subject: C = AU, ST = Some-State, O = Internet Widgits Pty Ltd
        Subject Public Key Info:
            Public Key Algorithm: rsaEncryption
                Public-Key: (2048 bit)
                Modulus:
                    00:bf:b5:82:f8:89:a4:7c:76:0f:3f:7d:4d:f9:45:
                    5a:c4:6c:3b:6e:5e:7f:91:83:3a:e4:73:ae:96:ba:
                    bf:59:06:87:40:23:85:a7:91:47:b9:53:7a:ba:98:
                    34:37:33:01:64:e9:f1:7d:2c:ed:05:c0:09:0e:99:
                    73:ea:b7:7c:99:86:14:61:b0:e2:38:3f:f5:73:61:
                    4d:6f:7d:8d:09:6a:d5:62:96:e9:b1:53:8c:98:95:
                    98:25:7f:61:39:9e:ab:81:d4:1d:f1:29:a6:a3:4c:
                    3f:53:ac:e4:4a:09:09:0c:99:92:cb:0b:25:ee:1a:
                    04:78:58:a4:fb:06:da:2e:06:c4:a1:11:4b:ce:be:
                    9c:d1:66:d8:49:a0:02:d5:0e:ae:2a:e9:68:ed:d1:
                    3b:7d:70:84:88:c9:e5:91:d6:78:95:36:5a:70:eb:
                    9d:3d:6a:4f:4f:29:32:a5:c4:15:bb:df:87:18:ba:
                    bb:f3:84:77:e5:f3:a7:95:67:2b:12:f2:9e:34:8e:
                    a5:10:10:53:46:12:5e:5b:84:de:6c:fe:9d:8a:c7:
                    74:39:65:fd:51:70:2c:a2:e6:93:4f:e6:58:a2:ee:
                    58:63:8e:9f:fa:89:fc:fb:8c:c1:5d:79:8d:ca:fe:
                    38:c3:1a:25:02:c4:ab:8d:b8:86:95:31:dc:6f:cd:
                    19:a9
                Exponent: 65537 (0x10001)
    Signature Algorithm: sha256WithRSAEncryption
         20:06:39:8e:94:d3:56:e5:f1:8b:d0:90:3c:1e:45:91:98:47:
         0d:14:cd:eb:cf:4b:f9:2c:62:07:41:bc:ed:e3:1b:3a:45:6d:
         38:0a:0a:42:d0:8b:c1:34:cc:e0:d7:e4:bc:1f:38:15:04:06:
         cd:40:e9:fd:a8:d3:fd:67:f0:4e:4f:ab:aa:51:67:e4:4c:9c:
         05:b6:1c:12:4a:c0:70:5a:05:24:c6:45:31:9d:3c:f8:8f:c6:
         9d:3e:b2:64:ee:34:92:48:2e:f6:83:48:9a:cd:83:a5:8a:34:
         bf:19:00:77:40:84:61:57:ab:89:a2:a6:48:8f:92:b1:e2:3e:
         71:d4:b0:96:89:c9:f4:d3:d5:ca:9c:c3:82:6b:4e:42:9d:d0:
         58:b0:fd:88:d8:6f:79:5c:e5:a1:90:04:17:2f:11:e7:f4:b2:
         a6:6d:55:ae:30:b7:d8:38:54:f9:33:64:81:d5:2e:64:4e:fc:
         3f:c1:68:01:dd:6c:1f:b7:87:df:a9:17:82:db:b8:3d:27:c2:
         16:d2:45:16:18:1b:39:61:d2:d2:42:12:ea:bc:6b:6b:52:05:
         9f:23:8b:8b:88:46:cf:65:1a:29:d7:5b:ab:08:f5:38:fa:a6:
         b0:9c:1d:b7:81:e7:25:9e:47:e4:36:43:0e:b5:70:10:b4:48:
         f1:6f:c7:b2
-----BEGIN CERTIFICATE-----
MIIDBjCCAe4CCQDfmQcAaMd5ozANBgkqhkiG9w0BAQsFADBFMQswCQYDVQQGEwJB
VTETMBEGA1UECAwKU29tZS1TdGF0ZTEhMB8GA1UECgwYSW50ZXJuZXQgV2lkZ2l0
cyBQdHkgTHRkMB4XDTE3MDMyMDEzMDM0NVoXDTE4MDMyMDEzMDM0NVowRTELMAkG
A1UEBhMCQVUxEzARBgNVBAgMClNvbWUtU3RhdGUxITAfBgNVBAoMGEludGVybmV0
IFdpZGdpdHMgUHR5IEx0ZDCCASIwDQYJKoZIhvcNAQEBBQADggEPADCCAQoCggEB
AL+1gviJpHx2Dz99TflFWsRsO25ef5GDOuRzrpa6v1kGh0AjhaeRR7lTerqYNDcz
AWTp8X0s7QXACQ6Zc+q3fJmGFGGw4jg/9XNhTW99jQlq1WKW6bFTjJiVmCV/YTme
q4HUHfEppqNMP1Os5EoJCQyZkssLJe4aBHhYpPsG2i4GxKERS86+nNFm2EmgAtUO
rirpaO3RO31whIjJ5ZHWeJU2WnDrnT1qT08pMqXEFbvfhxi6u/OEd+Xzp5VnKxLy
njSOpRAQU0YSXluE3mz+nYrHdDll/VFwLKLmk0/mWKLuWGOOn/qJ/PuMwV15jcr+
OMMaJQLEq424hpUx3G/NGakCAwEAATANBgkqhkiG9w0BAQsFAAOCAQEAIAY5jpTT
VuXxi9CQPB5FkZhHDRTN689L+SxiB0G87eMbOkVtOAoKQtCLwTTM4NfkvB84FQQG
zUDp/ajT/WfwTk+rqlFn5EycBbYcEkrAcFoFJMZFMZ08+I/GnT6yZO40kkgu9oNI
ms2DpYo0vxkAd0CEYVeriaKmSI+SseI+cdSwlonJ9NPVypzDgmtOQp3QWLD9iNhv
eVzloZAEFy8R5/Sypm1VrjC32DhU+TNkgdUuZE78P8FoAd1sH7eH36kXgtu4PSfC
FtJFFhgbOWHS0kIS6rxra1IFnyOLi4hGz2UaKddbqwj1OPqmsJwdt4HnJZ5H5DZD
DrVwELRI8W/Hsg==
-----END CERTIFICATE-----
